
build/blinky.bin:     file format binary


Disassembly of section .data:

00000000 <.data>:
   0:	5000      	str	r0, [r0, r0]
   2:	2000      	movs	r0, #0
   4:	0153      	lsls	r3, r2, #5
   6:	0800      	lsrs	r0, r0, #32
   8:	0151      	lsls	r1, r2, #5
   a:	0800      	lsrs	r0, r0, #32
   c:	0151      	lsls	r1, r2, #5
   e:	0800      	lsrs	r0, r0, #32
  10:	0151      	lsls	r1, r2, #5
  12:	0800      	lsrs	r0, r0, #32
  14:	0151      	lsls	r1, r2, #5
  16:	0800      	lsrs	r0, r0, #32
  18:	0151      	lsls	r1, r2, #5
  1a:	0800      	lsrs	r0, r0, #32
  1c:	0151      	lsls	r1, r2, #5
  1e:	0800      	lsrs	r0, r0, #32
  20:	0151      	lsls	r1, r2, #5
  22:	0800      	lsrs	r0, r0, #32
  24:	0151      	lsls	r1, r2, #5
  26:	0800      	lsrs	r0, r0, #32
  28:	0151      	lsls	r1, r2, #5
  2a:	0800      	lsrs	r0, r0, #32
  2c:	0151      	lsls	r1, r2, #5
  2e:	0800      	lsrs	r0, r0, #32
  30:	0151      	lsls	r1, r2, #5
  32:	0800      	lsrs	r0, r0, #32
  34:	0151      	lsls	r1, r2, #5
  36:	0800      	lsrs	r0, r0, #32
  38:	0151      	lsls	r1, r2, #5
  3a:	0800      	lsrs	r0, r0, #32
  3c:	04a9      	lsls	r1, r5, #18
  3e:	0800      	lsrs	r0, r0, #32
  40:	0151      	lsls	r1, r2, #5
  42:	0800      	lsrs	r0, r0, #32
  44:	0151      	lsls	r1, r2, #5
  46:	0800      	lsrs	r0, r0, #32
  48:	0151      	lsls	r1, r2, #5
  4a:	0800      	lsrs	r0, r0, #32
  4c:	0151      	lsls	r1, r2, #5
  4e:	0800      	lsrs	r0, r0, #32
  50:	0151      	lsls	r1, r2, #5
  52:	0800      	lsrs	r0, r0, #32
  54:	0151      	lsls	r1, r2, #5
  56:	0800      	lsrs	r0, r0, #32
  58:	0151      	lsls	r1, r2, #5
  5a:	0800      	lsrs	r0, r0, #32
  5c:	0151      	lsls	r1, r2, #5
  5e:	0800      	lsrs	r0, r0, #32
  60:	0151      	lsls	r1, r2, #5
  62:	0800      	lsrs	r0, r0, #32
  64:	0151      	lsls	r1, r2, #5
  66:	0800      	lsrs	r0, r0, #32
  68:	0151      	lsls	r1, r2, #5
  6a:	0800      	lsrs	r0, r0, #32
  6c:	0151      	lsls	r1, r2, #5
  6e:	0800      	lsrs	r0, r0, #32
  70:	0151      	lsls	r1, r2, #5
  72:	0800      	lsrs	r0, r0, #32
  74:	0151      	lsls	r1, r2, #5
  76:	0800      	lsrs	r0, r0, #32
  78:	0151      	lsls	r1, r2, #5
  7a:	0800      	lsrs	r0, r0, #32
  7c:	0151      	lsls	r1, r2, #5
  7e:	0800      	lsrs	r0, r0, #32
  80:	0151      	lsls	r1, r2, #5
  82:	0800      	lsrs	r0, r0, #32
  84:	0151      	lsls	r1, r2, #5
  86:	0800      	lsrs	r0, r0, #32
  88:	0151      	lsls	r1, r2, #5
  8a:	0800      	lsrs	r0, r0, #32
  8c:	0151      	lsls	r1, r2, #5
  8e:	0800      	lsrs	r0, r0, #32
  90:	0151      	lsls	r1, r2, #5
  92:	0800      	lsrs	r0, r0, #32
  94:	0151      	lsls	r1, r2, #5
  96:	0800      	lsrs	r0, r0, #32
  98:	0151      	lsls	r1, r2, #5
  9a:	0800      	lsrs	r0, r0, #32
  9c:	0151      	lsls	r1, r2, #5
  9e:	0800      	lsrs	r0, r0, #32
  a0:	0151      	lsls	r1, r2, #5
  a2:	0800      	lsrs	r0, r0, #32
  a4:	0151      	lsls	r1, r2, #5
  a6:	0800      	lsrs	r0, r0, #32
  a8:	0151      	lsls	r1, r2, #5
  aa:	0800      	lsrs	r0, r0, #32
  ac:	0151      	lsls	r1, r2, #5
  ae:	0800      	lsrs	r0, r0, #32
  b0:	019d      	lsls	r5, r3, #6
  b2:	0800      	lsrs	r0, r0, #32
  b4:	01b5      	lsls	r5, r6, #6
  b6:	0800      	lsrs	r0, r0, #32
  b8:	01d1      	lsls	r1, r2, #7
  ba:	0800      	lsrs	r0, r0, #32
  bc:	0151      	lsls	r1, r2, #5
  be:	0800      	lsrs	r0, r0, #32
  c0:	0151      	lsls	r1, r2, #5
  c2:	0800      	lsrs	r0, r0, #32
  c4:	0151      	lsls	r1, r2, #5
  c6:	0800      	lsrs	r0, r0, #32
  c8:	0151      	lsls	r1, r2, #5
  ca:	0800      	lsrs	r0, r0, #32
  cc:	0151      	lsls	r1, r2, #5
  ce:	0800      	lsrs	r0, r0, #32
  d0:	0151      	lsls	r1, r2, #5
  d2:	0800      	lsrs	r0, r0, #32
  d4:	0151      	lsls	r1, r2, #5
  d6:	0800      	lsrs	r0, r0, #32
  d8:	0151      	lsls	r1, r2, #5
  da:	0800      	lsrs	r0, r0, #32
  dc:	0151      	lsls	r1, r2, #5
  de:	0800      	lsrs	r0, r0, #32
  e0:	0151      	lsls	r1, r2, #5
  e2:	0800      	lsrs	r0, r0, #32
  e4:	0151      	lsls	r1, r2, #5
  e6:	0800      	lsrs	r0, r0, #32
  e8:	0151      	lsls	r1, r2, #5
  ea:	0800      	lsrs	r0, r0, #32
  ec:	0151      	lsls	r1, r2, #5
  ee:	0800      	lsrs	r0, r0, #32
  f0:	0151      	lsls	r1, r2, #5
  f2:	0800      	lsrs	r0, r0, #32
  f4:	0151      	lsls	r1, r2, #5
  f6:	0800      	lsrs	r0, r0, #32
  f8:	0151      	lsls	r1, r2, #5
  fa:	0800      	lsrs	r0, r0, #32
  fc:	0151      	lsls	r1, r2, #5
  fe:	0800      	lsrs	r0, r0, #32
 100:	0151      	lsls	r1, r2, #5
 102:	0800      	lsrs	r0, r0, #32
 104:	0151      	lsls	r1, r2, #5
 106:	0800      	lsrs	r0, r0, #32
 108:	0151      	lsls	r1, r2, #5
 10a:	0800      	lsrs	r0, r0, #32
 10c:	0151      	lsls	r1, r2, #5
 10e:	0800      	lsrs	r0, r0, #32
 110:	0151      	lsls	r1, r2, #5
 112:	0800      	lsrs	r0, r0, #32
 114:	0151      	lsls	r1, r2, #5
 116:	0800      	lsrs	r0, r0, #32
 118:	0151      	lsls	r1, r2, #5
 11a:	0800      	lsrs	r0, r0, #32
 11c:	0151      	lsls	r1, r2, #5
 11e:	0800      	lsrs	r0, r0, #32
 120:	0151      	lsls	r1, r2, #5
 122:	0800      	lsrs	r0, r0, #32
 124:	0151      	lsls	r1, r2, #5
 126:	0800      	lsrs	r0, r0, #32
 128:	0151      	lsls	r1, r2, #5
 12a:	0800      	lsrs	r0, r0, #32
 12c:	0151      	lsls	r1, r2, #5
 12e:	0800      	lsrs	r0, r0, #32
 130:	0151      	lsls	r1, r2, #5
 132:	0800      	lsrs	r0, r0, #32
 134:	0151      	lsls	r1, r2, #5
 136:	0800      	lsrs	r0, r0, #32
 138:	0151      	lsls	r1, r2, #5
 13a:	0800      	lsrs	r0, r0, #32
 13c:	0151      	lsls	r1, r2, #5
 13e:	0800      	lsrs	r0, r0, #32
 140:	0151      	lsls	r1, r2, #5
 142:	0800      	lsrs	r0, r0, #32
 144:	0151      	lsls	r1, r2, #5
 146:	0800      	lsrs	r0, r0, #32
 148:	0151      	lsls	r1, r2, #5
 14a:	0800      	lsrs	r0, r0, #32
 14c:	0151      	lsls	r1, r2, #5
 14e:	0800      	lsrs	r0, r0, #32
 150:	e7fe      	b.n	0x150
 152:	f000 fa0f 	bl	0x574
 156:	e7fe      	b.n	0x156
 158:	b480      	push	{r7}
 15a:	b083      	sub	sp, #12
 15c:	af00      	add	r7, sp, #0
 15e:	4603      	mov	r3, r0
 160:	71fb      	strb	r3, [r7, #7]
 162:	79fb      	ldrb	r3, [r7, #7]
 164:	2b03      	cmp	r3, #3
 166:	d006      	beq.n	0x176
 168:	2b04      	cmp	r3, #4
 16a:	d007      	beq.n	0x17c
 16c:	2b02      	cmp	r3, #2
 16e:	d108      	bne.n	0x182
 170:	4b07      	ldr	r3, [pc, #28]	; (0x190)
 172:	681b      	ldr	r3, [r3, #0]
 174:	e007      	b.n	0x186
 176:	4b07      	ldr	r3, [pc, #28]	; (0x194)
 178:	681b      	ldr	r3, [r3, #0]
 17a:	e004      	b.n	0x186
 17c:	4b06      	ldr	r3, [pc, #24]	; (0x198)
 17e:	681b      	ldr	r3, [r3, #0]
 180:	e001      	b.n	0x186
 182:	4b03      	ldr	r3, [pc, #12]	; (0x190)
 184:	681b      	ldr	r3, [r3, #0]
 186:	4618      	mov	r0, r3
 188:	370c      	adds	r7, #12
 18a:	46bd      	mov	sp, r7
 18c:	bc80      	pop	{r7}
 18e:	4770      	bx	lr
 190:	061c      	lsls	r4, r3, #24
 192:	0800      	lsrs	r0, r0, #32
 194:	0620      	lsls	r0, r4, #24
 196:	0800      	lsrs	r0, r0, #32
 198:	0624      	lsls	r4, r4, #24
 19a:	0800      	lsrs	r0, r0, #32
 19c:	b480      	push	{r7}
 19e:	af00      	add	r7, sp, #0
 1a0:	4b03      	ldr	r3, [pc, #12]	; (0x1b0)
 1a2:	681b      	ldr	r3, [r3, #0]
 1a4:	2200      	movs	r2, #0
 1a6:	611a      	str	r2, [r3, #16]
 1a8:	bf00      	nop
 1aa:	46bd      	mov	sp, r7
 1ac:	bc80      	pop	{r7}
 1ae:	4770      	bx	lr
 1b0:	061c      	lsls	r4, r3, #24
 1b2:	0800      	lsrs	r0, r0, #32
 1b4:	b580      	push	{r7, lr}
 1b6:	af00      	add	r7, sp, #0
 1b8:	4b04      	ldr	r3, [pc, #16]	; (0x1cc)
 1ba:	681b      	ldr	r3, [r3, #0]
 1bc:	2200      	movs	r2, #0
 1be:	611a      	str	r2, [r3, #16]
 1c0:	2007      	movs	r0, #7
 1c2:	f000 f905 	bl	0x3d0
 1c6:	bf00      	nop
 1c8:	bd80      	pop	{r7, pc}
 1ca:	bf00      	nop
 1cc:	0620      	lsls	r0, r4, #24
 1ce:	0800      	lsrs	r0, r0, #32
 1d0:	b480      	push	{r7}
 1d2:	af00      	add	r7, sp, #0
 1d4:	4b03      	ldr	r3, [pc, #12]	; (0x1e4)
 1d6:	681b      	ldr	r3, [r3, #0]
 1d8:	2200      	movs	r2, #0
 1da:	611a      	str	r2, [r3, #16]
 1dc:	bf00      	nop
 1de:	46bd      	mov	sp, r7
 1e0:	bc80      	pop	{r7}
 1e2:	4770      	bx	lr
 1e4:	0624      	lsls	r4, r4, #24
 1e6:	0800      	lsrs	r0, r0, #32
 1e8:	b580      	push	{r7, lr}
 1ea:	b084      	sub	sp, #16
 1ec:	af00      	add	r7, sp, #0
 1ee:	4603      	mov	r3, r0
 1f0:	71fb      	strb	r3, [r7, #7]
 1f2:	79fb      	ldrb	r3, [r7, #7]
 1f4:	4618      	mov	r0, r3
 1f6:	f7ff ffaf 	bl	0x158
 1fa:	60f8      	str	r0, [r7, #12]
 1fc:	68fb      	ldr	r3, [r7, #12]
 1fe:	6a5b      	ldr	r3, [r3, #36]	; 0x24
 200:	4618      	mov	r0, r3
 202:	3710      	adds	r7, #16
 204:	46bd      	mov	sp, r7
 206:	bd80      	pop	{r7, pc}
 208:	b580      	push	{r7, lr}
 20a:	b086      	sub	sp, #24
 20c:	af00      	add	r7, sp, #0
 20e:	603b      	str	r3, [r7, #0]
 210:	4603      	mov	r3, r0
 212:	71fb      	strb	r3, [r7, #7]
 214:	460b      	mov	r3, r1
 216:	71bb      	strb	r3, [r7, #6]
 218:	4613      	mov	r3, r2
 21a:	717b      	strb	r3, [r7, #5]
 21c:	79fb      	ldrb	r3, [r7, #7]
 21e:	4618      	mov	r0, r3
 220:	f7ff ff9a 	bl	0x158
 224:	6178      	str	r0, [r7, #20]
 226:	797b      	ldrb	r3, [r7, #5]
 228:	697a      	ldr	r2, [r7, #20]
 22a:	330c      	adds	r3, #12
 22c:	009b      	lsls	r3, r3, #2
 22e:	4413      	add	r3, r2
 230:	683a      	ldr	r2, [r7, #0]
 232:	605a      	str	r2, [r3, #4]
 234:	797b      	ldrb	r3, [r7, #5]
 236:	009b      	lsls	r3, r3, #2
 238:	74fb      	strb	r3, [r7, #19]
 23a:	697b      	ldr	r3, [r7, #20]
 23c:	6a1b      	ldr	r3, [r3, #32]
 23e:	7cfa      	ldrb	r2, [r7, #19]
 240:	210f      	movs	r1, #15
 242:	fa01 f202 	lsl.w	r2, r1, r2
 246:	43d2      	mvns	r2, r2
 248:	4013      	ands	r3, r2
 24a:	60fb      	str	r3, [r7, #12]
 24c:	7cfb      	ldrb	r3, [r7, #19]
 24e:	2201      	movs	r2, #1
 250:	fa02 f303 	lsl.w	r3, r2, r3
 254:	461a      	mov	r2, r3
 256:	68fb      	ldr	r3, [r7, #12]
 258:	431a      	orrs	r2, r3
 25a:	697b      	ldr	r3, [r7, #20]
 25c:	621a      	str	r2, [r3, #32]
 25e:	797b      	ldrb	r3, [r7, #5]
 260:	f003 0301 	and.w	r3, r3, #1
 264:	b2db      	uxtb	r3, r3
 266:	00db      	lsls	r3, r3, #3
 268:	74fb      	strb	r3, [r7, #19]
 26a:	797b      	ldrb	r3, [r7, #5]
 26c:	085b      	lsrs	r3, r3, #1
 26e:	72fb      	strb	r3, [r7, #11]
 270:	7afa      	ldrb	r2, [r7, #11]
 272:	697b      	ldr	r3, [r7, #20]
 274:	3206      	adds	r2, #6
 276:	f853 3022 	ldr.w	r3, [r3, r2, lsl #2]
 27a:	7cfa      	ldrb	r2, [r7, #19]
 27c:	21ff      	movs	r1, #255	; 0xff
 27e:	fa01 f202 	lsl.w	r2, r1, r2
 282:	43d2      	mvns	r2, r2
 284:	4013      	ands	r3, r2
 286:	60fb      	str	r3, [r7, #12]
 288:	79ba      	ldrb	r2, [r7, #6]
 28a:	7cfb      	ldrb	r3, [r7, #19]
 28c:	fa02 f303 	lsl.w	r3, r2, r3
 290:	4619      	mov	r1, r3
 292:	7afa      	ldrb	r2, [r7, #11]
 294:	68fb      	ldr	r3, [r7, #12]
 296:	4319      	orrs	r1, r3
 298:	697b      	ldr	r3, [r7, #20]
 29a:	3206      	adds	r2, #6
 29c:	f843 1022 	str.w	r1, [r3, r2, lsl #2]
 2a0:	bf00      	nop
 2a2:	3718      	adds	r7, #24
 2a4:	46bd      	mov	sp, r7
 2a6:	bd80      	pop	{r7, pc}
 2a8:	b580      	push	{r7, lr}
 2aa:	b086      	sub	sp, #24
 2ac:	af00      	add	r7, sp, #0
 2ae:	4603      	mov	r3, r0
 2b0:	60b9      	str	r1, [r7, #8]
 2b2:	607a      	str	r2, [r7, #4]
 2b4:	73fb      	strb	r3, [r7, #15]
 2b6:	7bfb      	ldrb	r3, [r7, #15]
 2b8:	4618      	mov	r0, r3
 2ba:	f7ff ff4d 	bl	0x158
 2be:	6178      	str	r0, [r7, #20]
 2c0:	68bb      	ldr	r3, [r7, #8]
 2c2:	1e5a      	subs	r2, r3, #1
 2c4:	697b      	ldr	r3, [r7, #20]
 2c6:	629a      	str	r2, [r3, #40]	; 0x28
 2c8:	687b      	ldr	r3, [r7, #4]
 2ca:	1e5a      	subs	r2, r3, #1
 2cc:	697b      	ldr	r3, [r7, #20]
 2ce:	62da      	str	r2, [r3, #44]	; 0x2c
 2d0:	697b      	ldr	r3, [r7, #20]
 2d2:	2201      	movs	r2, #1
 2d4:	60da      	str	r2, [r3, #12]
 2d6:	7bfb      	ldrb	r3, [r7, #15]
 2d8:	331a      	adds	r3, #26
 2da:	b2db      	uxtb	r3, r3
 2dc:	4618      	mov	r0, r3
 2de:	f000 f807 	bl	0x2f0
 2e2:	697b      	ldr	r3, [r7, #20]
 2e4:	2201      	movs	r2, #1
 2e6:	601a      	str	r2, [r3, #0]
 2e8:	bf00      	nop
 2ea:	3718      	adds	r7, #24
 2ec:	46bd      	mov	sp, r7
 2ee:	bd80      	pop	{r7, pc}
 2f0:	b480      	push	{r7}
 2f2:	b085      	sub	sp, #20
 2f4:	af00      	add	r7, sp, #0
 2f6:	4603      	mov	r3, r0
 2f8:	71fb      	strb	r3, [r7, #7]
 2fa:	79fb      	ldrb	r3, [r7, #7]
 2fc:	095b      	lsrs	r3, r3, #5
 2fe:	73fb      	strb	r3, [r7, #15]
 300:	79fb      	ldrb	r3, [r7, #7]
 302:	f003 031f 	and.w	r3, r3, #31
 306:	73bb      	strb	r3, [r7, #14]
 308:	7bbb      	ldrb	r3, [r7, #14]
 30a:	2201      	movs	r2, #1
 30c:	fa02 f103 	lsl.w	r1, r2, r3
 310:	4b04      	ldr	r3, [pc, #16]	; (0x324)
 312:	681b      	ldr	r3, [r3, #0]
 314:	7bfa      	ldrb	r2, [r7, #15]
 316:	f843 1022 	str.w	r1, [r3, r2, lsl #2]
 31a:	bf00      	nop
 31c:	3714      	adds	r7, #20
 31e:	46bd      	mov	sp, r7
 320:	bc80      	pop	{r7}
 322:	4770      	bx	lr
 324:	0628      	lsls	r0, r5, #24
 326:	0800      	lsrs	r0, r0, #32
 328:	b480      	push	{r7}
 32a:	b083      	sub	sp, #12
 32c:	af00      	add	r7, sp, #0
 32e:	4603      	mov	r3, r0
 330:	71fb      	strb	r3, [r7, #7]
 332:	79fb      	ldrb	r3, [r7, #7]
 334:	091b      	lsrs	r3, r3, #4
 336:	b2db      	uxtb	r3, r3
 338:	2b00      	cmp	r3, #0
 33a:	d002      	beq.n	0x342
 33c:	2b01      	cmp	r3, #1
 33e:	d003      	beq.n	0x348
 340:	e005      	b.n	0x34e
 342:	4b06      	ldr	r3, [pc, #24]	; (0x35c)
 344:	681b      	ldr	r3, [r3, #0]
 346:	e004      	b.n	0x352
 348:	4b05      	ldr	r3, [pc, #20]	; (0x360)
 34a:	681b      	ldr	r3, [r3, #0]
 34c:	e001      	b.n	0x352
 34e:	4b05      	ldr	r3, [pc, #20]	; (0x364)
 350:	681b      	ldr	r3, [r3, #0]
 352:	4618      	mov	r0, r3
 354:	370c      	adds	r7, #12
 356:	46bd      	mov	sp, r7
 358:	bc80      	pop	{r7}
 35a:	4770      	bx	lr
 35c:	062c      	lsls	r4, r5, #24
 35e:	0800      	lsrs	r0, r0, #32
 360:	0630      	lsls	r0, r6, #24
 362:	0800      	lsrs	r0, r0, #32
 364:	0634      	lsls	r4, r6, #24
 366:	0800      	lsrs	r0, r0, #32
 368:	b580      	push	{r7, lr}
 36a:	b086      	sub	sp, #24
 36c:	af00      	add	r7, sp, #0
 36e:	4603      	mov	r3, r0
 370:	460a      	mov	r2, r1
 372:	71fb      	strb	r3, [r7, #7]
 374:	4613      	mov	r3, r2
 376:	71bb      	strb	r3, [r7, #6]
 378:	79fb      	ldrb	r3, [r7, #7]
 37a:	4618      	mov	r0, r3
 37c:	f7ff ffd4 	bl	0x328
 380:	6178      	str	r0, [r7, #20]
 382:	79fb      	ldrb	r3, [r7, #7]
 384:	f003 030f 	and.w	r3, r3, #15
 388:	74fb      	strb	r3, [r7, #19]
 38a:	7cfb      	ldrb	r3, [r7, #19]
 38c:	f003 0307 	and.w	r3, r3, #7
 390:	b2db      	uxtb	r3, r3
 392:	009b      	lsls	r3, r3, #2
 394:	74bb      	strb	r3, [r7, #18]
 396:	7cfb      	ldrb	r3, [r7, #19]
 398:	08db      	lsrs	r3, r3, #3
 39a:	747b      	strb	r3, [r7, #17]
 39c:	7c7a      	ldrb	r2, [r7, #17]
 39e:	697b      	ldr	r3, [r7, #20]
 3a0:	f853 3022 	ldr.w	r3, [r3, r2, lsl #2]
 3a4:	7cba      	ldrb	r2, [r7, #18]
 3a6:	210f      	movs	r1, #15
 3a8:	fa01 f202 	lsl.w	r2, r1, r2
 3ac:	43d2      	mvns	r2, r2
 3ae:	4013      	ands	r3, r2
 3b0:	60fb      	str	r3, [r7, #12]
 3b2:	79ba      	ldrb	r2, [r7, #6]
 3b4:	7cbb      	ldrb	r3, [r7, #18]
 3b6:	fa02 f303 	lsl.w	r3, r2, r3
 3ba:	4619      	mov	r1, r3
 3bc:	7c7a      	ldrb	r2, [r7, #17]
 3be:	68fb      	ldr	r3, [r7, #12]
 3c0:	4319      	orrs	r1, r3
 3c2:	697b      	ldr	r3, [r7, #20]
 3c4:	f843 1022 	str.w	r1, [r3, r2, lsl #2]
 3c8:	bf00      	nop
 3ca:	3718      	adds	r7, #24
 3cc:	46bd      	mov	sp, r7
 3ce:	bd80      	pop	{r7, pc}
 3d0:	b580      	push	{r7, lr}
 3d2:	b084      	sub	sp, #16
 3d4:	af00      	add	r7, sp, #0
 3d6:	4603      	mov	r3, r0
 3d8:	71fb      	strb	r3, [r7, #7]
 3da:	79fb      	ldrb	r3, [r7, #7]
 3dc:	4618      	mov	r0, r3
 3de:	f7ff ffa3 	bl	0x328
 3e2:	60f8      	str	r0, [r7, #12]
 3e4:	68fb      	ldr	r3, [r7, #12]
 3e6:	68db      	ldr	r3, [r3, #12]
 3e8:	79fa      	ldrb	r2, [r7, #7]
 3ea:	f002 020f 	and.w	r2, r2, #15
 3ee:	2101      	movs	r1, #1
 3f0:	fa01 f202 	lsl.w	r2, r1, r2
 3f4:	405a      	eors	r2, r3
 3f6:	68fb      	ldr	r3, [r7, #12]
 3f8:	60da      	str	r2, [r3, #12]
 3fa:	bf00      	nop
 3fc:	3710      	adds	r7, #16
 3fe:	46bd      	mov	sp, r7
 400:	bd80      	pop	{r7, pc}
 402:	b580      	push	{r7, lr}
 404:	b084      	sub	sp, #16
 406:	af00      	add	r7, sp, #0
 408:	4603      	mov	r3, r0
 40a:	71fb      	strb	r3, [r7, #7]
 40c:	79fb      	ldrb	r3, [r7, #7]
 40e:	4618      	mov	r0, r3
 410:	f7ff ff8a 	bl	0x328
 414:	60f8      	str	r0, [r7, #12]
 416:	79fb      	ldrb	r3, [r7, #7]
 418:	2b2d      	cmp	r3, #45	; 0x2d
 41a:	d10c      	bne.n	0x436
 41c:	68fb      	ldr	r3, [r7, #12]
 41e:	68db      	ldr	r3, [r3, #12]
 420:	79fa      	ldrb	r2, [r7, #7]
 422:	f002 020f 	and.w	r2, r2, #15
 426:	2101      	movs	r1, #1
 428:	fa01 f202 	lsl.w	r2, r1, r2
 42c:	43d2      	mvns	r2, r2
 42e:	401a      	ands	r2, r3
 430:	68fb      	ldr	r3, [r7, #12]
 432:	60da      	str	r2, [r3, #12]
 434:	e00a      	b.n	0x44c
 436:	68fb      	ldr	r3, [r7, #12]
 438:	68db      	ldr	r3, [r3, #12]
 43a:	79fa      	ldrb	r2, [r7, #7]
 43c:	f002 020f 	and.w	r2, r2, #15
 440:	2101      	movs	r1, #1
 442:	fa01 f202 	lsl.w	r2, r1, r2
 446:	431a      	orrs	r2, r3
 448:	68fb      	ldr	r3, [r7, #12]
 44a:	60da      	str	r2, [r3, #12]
 44c:	bf00      	nop
 44e:	3710      	adds	r7, #16
 450:	46bd      	mov	sp, r7
 452:	bd80      	pop	{r7, pc}
 454:	b580      	push	{r7, lr}
 456:	b084      	sub	sp, #16
 458:	af00      	add	r7, sp, #0
 45a:	4603      	mov	r3, r0
 45c:	71fb      	strb	r3, [r7, #7]
 45e:	79fb      	ldrb	r3, [r7, #7]
 460:	4618      	mov	r0, r3
 462:	f7ff ff61 	bl	0x328
 466:	60f8      	str	r0, [r7, #12]
 468:	79fb      	ldrb	r3, [r7, #7]
 46a:	2b2d      	cmp	r3, #45	; 0x2d
 46c:	d10b      	bne.n	0x486
 46e:	68fb      	ldr	r3, [r7, #12]
 470:	68db      	ldr	r3, [r3, #12]
 472:	79fa      	ldrb	r2, [r7, #7]
 474:	f002 020f 	and.w	r2, r2, #15
 478:	2101      	movs	r1, #1
 47a:	fa01 f202 	lsl.w	r2, r1, r2
 47e:	431a      	orrs	r2, r3
 480:	68fb      	ldr	r3, [r7, #12]
 482:	60da      	str	r2, [r3, #12]
 484:	e00b      	b.n	0x49e
 486:	68fb      	ldr	r3, [r7, #12]
 488:	68db      	ldr	r3, [r3, #12]
 48a:	79fa      	ldrb	r2, [r7, #7]
 48c:	f002 020f 	and.w	r2, r2, #15
 490:	2101      	movs	r1, #1
 492:	fa01 f202 	lsl.w	r2, r1, r2
 496:	43d2      	mvns	r2, r2
 498:	401a      	ands	r2, r3
 49a:	68fb      	ldr	r3, [r7, #12]
 49c:	60da      	str	r2, [r3, #12]
 49e:	bf00      	nop
 4a0:	3710      	adds	r7, #16
 4a2:	46bd      	mov	sp, r7
 4a4:	bd80      	pop	{r7, pc}
 4a6:	bf00      	nop
 4a8:	b480      	push	{r7}
 4aa:	af00      	add	r7, sp, #0
 4ac:	4b04      	ldr	r3, [pc, #16]	; (0x4c0)
 4ae:	681b      	ldr	r3, [r3, #0]
 4b0:	3301      	adds	r3, #1
 4b2:	4a03      	ldr	r2, [pc, #12]	; (0x4c0)
 4b4:	6013      	str	r3, [r2, #0]
 4b6:	bf00      	nop
 4b8:	46bd      	mov	sp, r7
 4ba:	bc80      	pop	{r7}
 4bc:	4770      	bx	lr
 4be:	bf00      	nop
 4c0:	0000      	movs	r0, r0
 4c2:	2000      	movs	r0, #0
 4c4:	b480      	push	{r7}
 4c6:	b083      	sub	sp, #12
 4c8:	af00      	add	r7, sp, #0
 4ca:	6078      	str	r0, [r7, #4]
 4cc:	4b0a      	ldr	r3, [pc, #40]	; (0x4f8)
 4ce:	681b      	ldr	r3, [r3, #0]
 4d0:	687a      	ldr	r2, [r7, #4]
 4d2:	3a01      	subs	r2, #1
 4d4:	605a      	str	r2, [r3, #4]
 4d6:	4b08      	ldr	r3, [pc, #32]	; (0x4f8)
 4d8:	681b      	ldr	r3, [r3, #0]
 4da:	2200      	movs	r2, #0
 4dc:	609a      	str	r2, [r3, #8]
 4de:	4b07      	ldr	r3, [pc, #28]	; (0x4fc)
 4e0:	2200      	movs	r2, #0
 4e2:	601a      	str	r2, [r3, #0]
 4e4:	4b04      	ldr	r3, [pc, #16]	; (0x4f8)
 4e6:	681b      	ldr	r3, [r3, #0]
 4e8:	2203      	movs	r2, #3
 4ea:	601a      	str	r2, [r3, #0]
 4ec:	bf00      	nop
 4ee:	370c      	adds	r7, #12
 4f0:	46bd      	mov	sp, r7
 4f2:	bc80      	pop	{r7}
 4f4:	4770      	bx	lr
 4f6:	bf00      	nop
 4f8:	0638      	lsls	r0, r7, #24
 4fa:	0800      	lsrs	r0, r0, #32
 4fc:	0000      	movs	r0, r0
 4fe:	2000      	movs	r0, #0
 500:	b480      	push	{r7}
 502:	af00      	add	r7, sp, #0
 504:	4b02      	ldr	r3, [pc, #8]	; (0x510)
 506:	681b      	ldr	r3, [r3, #0]
 508:	4618      	mov	r0, r3
 50a:	46bd      	mov	sp, r7
 50c:	bc80      	pop	{r7}
 50e:	4770      	bx	lr
 510:	0000      	movs	r0, r0
 512:	2000      	movs	r0, #0
 514:	b480      	push	{r7}
 516:	b085      	sub	sp, #20
 518:	af00      	add	r7, sp, #0
 51a:	6078      	str	r0, [r7, #4]
 51c:	2300      	movs	r3, #0
 51e:	60fb      	str	r3, [r7, #12]
 520:	e002      	b.n	0x528
 522:	68fb      	ldr	r3, [r7, #12]
 524:	3301      	adds	r3, #1
 526:	60fb      	str	r3, [r7, #12]
 528:	68fa      	ldr	r2, [r7, #12]
 52a:	687b      	ldr	r3, [r7, #4]
 52c:	429a      	cmp	r2, r3
 52e:	d3f8      	bcc.n	0x522
 530:	bf00      	nop
 532:	3714      	adds	r7, #20
 534:	46bd      	mov	sp, r7
 536:	bc80      	pop	{r7}
 538:	4770      	bx	lr
 53a:	0000      	movs	r0, r0
 53c:	b480      	push	{r7}
 53e:	af00      	add	r7, sp, #0
 540:	4b0b      	ldr	r3, [pc, #44]	; (0x570)
 542:	681b      	ldr	r3, [r3, #0]
 544:	69da      	ldr	r2, [r3, #28]
 546:	4b0a      	ldr	r3, [pc, #40]	; (0x570)
 548:	681b      	ldr	r3, [r3, #0]
 54a:	f042 0207 	orr.w	r2, r2, #7
 54e:	61da      	str	r2, [r3, #28]
 550:	4b07      	ldr	r3, [pc, #28]	; (0x570)
 552:	681b      	ldr	r3, [r3, #0]
 554:	699a      	ldr	r2, [r3, #24]
 556:	4b06      	ldr	r3, [pc, #24]	; (0x570)
 558:	681b      	ldr	r3, [r3, #0]
 55a:	f042 021c 	orr.w	r2, r2, #28
 55e:	619a      	str	r2, [r3, #24]
 560:	4b03      	ldr	r3, [pc, #12]	; (0x570)
 562:	681b      	ldr	r3, [r3, #0]
 564:	22a0      	movs	r2, #160	; 0xa0
 566:	605a      	str	r2, [r3, #4]
 568:	bf00      	nop
 56a:	46bd      	mov	sp, r7
 56c:	bc80      	pop	{r7}
 56e:	4770      	bx	lr
 570:	063c      	lsls	r4, r7, #24
 572:	0800      	lsrs	r0, r0, #32
 574:	b580      	push	{r7, lr}
 576:	b084      	sub	sp, #16
 578:	af00      	add	r7, sp, #0
 57a:	f7ff ffdf 	bl	0x53c
 57e:	2103      	movs	r1, #3
 580:	202d      	movs	r0, #45	; 0x2d
 582:	f7ff fef1 	bl	0x368
 586:	f44f 727a 	mov.w	r2, #1000	; 0x3e8
 58a:	f44f 717a 	mov.w	r1, #1000	; 0x3e8
 58e:	2003      	movs	r0, #3
 590:	f7ff fe8a 	bl	0x2a8
 594:	2103      	movs	r1, #3
 596:	2007      	movs	r0, #7
 598:	f7ff fee6 	bl	0x368
 59c:	22ff      	movs	r2, #255	; 0xff
 59e:	2164      	movs	r1, #100	; 0x64
 5a0:	2002      	movs	r0, #2
 5a2:	f7ff fe81 	bl	0x2a8
 5a6:	210b      	movs	r1, #11
 5a8:	2002      	movs	r0, #2
 5aa:	f7ff fedd 	bl	0x368
 5ae:	f44f 707a 	mov.w	r0, #1000	; 0x3e8
 5b2:	f7ff ff87 	bl	0x4c4
 5b6:	2300      	movs	r3, #0
 5b8:	73fb      	strb	r3, [r7, #15]
 5ba:	f7ff ffa1 	bl	0x500
 5be:	60b8      	str	r0, [r7, #8]
 5c0:	2301      	movs	r3, #1
 5c2:	71fb      	strb	r3, [r7, #7]
 5c4:	f7ff ff9c 	bl	0x500
 5c8:	4602      	mov	r2, r0
 5ca:	68bb      	ldr	r3, [r7, #8]
 5cc:	1ad3      	subs	r3, r2, r3
 5ce:	2b64      	cmp	r3, #100	; 0x64
 5d0:	d9f8      	bls.n	0x5c4
 5d2:	202d      	movs	r0, #45	; 0x2d
 5d4:	f7ff fefc 	bl	0x3d0
 5d8:	f7ff ff92 	bl	0x500
 5dc:	60b8      	str	r0, [r7, #8]
 5de:	79fb      	ldrb	r3, [r7, #7]
 5e0:	2b00      	cmp	r3, #0
 5e2:	d003      	beq.n	0x5ec
 5e4:	7bfb      	ldrb	r3, [r7, #15]
 5e6:	330a      	adds	r3, #10
 5e8:	73fb      	strb	r3, [r7, #15]
 5ea:	e002      	b.n	0x5f2
 5ec:	7bfb      	ldrb	r3, [r7, #15]
 5ee:	3b0a      	subs	r3, #10
 5f0:	73fb      	strb	r3, [r7, #15]
 5f2:	7bfb      	ldrb	r3, [r7, #15]
 5f4:	2bfa      	cmp	r3, #250	; 0xfa
 5f6:	d002      	beq.n	0x5fe
 5f8:	7bfb      	ldrb	r3, [r7, #15]
 5fa:	2b00      	cmp	r3, #0
 5fc:	d106      	bne.n	0x60c
 5fe:	79fb      	ldrb	r3, [r7, #7]
 600:	2b00      	cmp	r3, #0
 602:	bf0c      	ite	eq
 604:	2301      	moveq	r3, #1
 606:	2300      	movne	r3, #0
 608:	b2db      	uxtb	r3, r3
 60a:	71fb      	strb	r3, [r7, #7]
 60c:	7bfb      	ldrb	r3, [r7, #15]
 60e:	2202      	movs	r2, #2
 610:	2168      	movs	r1, #104	; 0x68
 612:	2002      	movs	r0, #2
 614:	f7ff fdf8 	bl	0x208
 618:	e7d4      	b.n	0x5c4
 61a:	0000      	movs	r0, r0
 61c:	0000      	movs	r0, r0
 61e:	4000      	ands	r0, r0
 620:	0400      	lsls	r0, r0, #16
 622:	4000      	ands	r0, r0
 624:	0800      	lsrs	r0, r0, #32
 626:	4000      	ands	r0, r0
 628:	e100      	b.n	0x82c
 62a:	e000      	b.n	0x62e
 62c:	0800      	lsrs	r0, r0, #32
 62e:	4001      	ands	r1, r0
 630:	0c00      	lsrs	r0, r0, #16
 632:	4001      	ands	r1, r0
 634:	1000      	asrs	r0, r0, #32
 636:	4001      	ands	r1, r0
 638:	e010      	b.n	0x65c
 63a:	e000      	b.n	0x63e
 63c:	1000      	asrs	r0, r0, #32
 63e:	4002      	ands	r2, r0
